target datalayout = "e-m:e-p270:32:32-p271:32:32-p272:64:64-i64:64-i128:128-f80:128-n8:16:32:64-S128"
target triple = "x86_64-pc-linux-gnu"

@Truth6 = internal global [6 x i64] [i64 -6148914691236517206, i64 -3689348814741910324, i64 -1085102592571150096, i64 -71777214294589696, i64 -281470681808896, i64 -4294967296], align 16

; Function Attrs: inlinehint nounwind uwtable
define internal i32 @If_CluWordNum(i32 noundef %0) #3 {
  %2 = alloca i32, align 4
  store i32 %0, ptr %2, align 4, !tbaa !3
  %3 = load i32, ptr %2, align 4, !tbaa !3
  %4 = icmp sle i32 %3, 6
  br i1 %4, label %5, label %6

5:                                                ; preds = %1
  br label %10

6:                                                ; preds = %1
  %7 = load i32, ptr %2, align 4, !tbaa !3
  %8 = sub nsw i32 %7, 6
  %9 = shl i32 1, %8
  br label %10

10:                                               ; preds = %6, %5
  %11 = phi i32 [ 1, %5 ], [ %9, %6 ]
  ret i32 %11
}

; Function Attrs: inlinehint nounwind uwtable
define internal i32 @If_CluHasVar(ptr noundef %0, i32 noundef %1, i32 noundef %2) #3 {
  %4 = alloca i32, align 4
  %5 = alloca ptr, align 8
  %6 = alloca i32, align 4
  %7 = alloca i32, align 4
  %8 = alloca i32, align 4
  %9 = alloca i32, align 4
  %10 = alloca i32, align 4
  %11 = alloca i32, align 4
  %12 = alloca i32, align 4
  %13 = alloca i32, align 4
  %14 = alloca i32, align 4
  store ptr %0, ptr %5, align 8, !tbaa !51
  store i32 %1, ptr %6, align 4, !tbaa !3
  store i32 %2, ptr %7, align 4, !tbaa !3
  call void @llvm.lifetime.start.p0(i64 4, ptr %8) #11
  %15 = load i32, ptr %6, align 4, !tbaa !3
  %16 = call i32 @If_CluWordNum(i32 noundef %15)
  store i32 %16, ptr %8, align 4, !tbaa !3
  %17 = load i32, ptr %7, align 4, !tbaa !3
  %18 = icmp slt i32 %17, 6
  br i1 %18, label %19, label %59

19:                                               ; preds = %3
  call void @llvm.lifetime.start.p0(i64 4, ptr %9) #11
  call void @llvm.lifetime.start.p0(i64 4, ptr %10) #11
  %20 = load i32, ptr %7, align 4, !tbaa !3
  %21 = shl i32 1, %20
  store i32 %21, ptr %10, align 4, !tbaa !3
  store i32 0, ptr %9, align 4, !tbaa !3
  br label %22

22:                                               ; preds = %54, %19
  %23 = load i32, ptr %9, align 4, !tbaa !3
  %24 = load i32, ptr %8, align 4, !tbaa !3
  %25 = icmp slt i32 %23, %24
  br i1 %25, label %26, label %57

26:                                               ; preds = %22
  %27 = load ptr, ptr %5, align 8, !tbaa !51
  %28 = load i32, ptr %9, align 4, !tbaa !3
  %29 = sext i32 %28 to i64
  %30 = getelementptr inbounds i64, ptr %27, i64 %29
  %31 = load i64, ptr %30, align 8, !tbaa !79
  %32 = load i32, ptr %7, align 4, !tbaa !3
  %33 = sext i32 %32 to i64
  %34 = getelementptr inbounds [6 x i64], ptr @Truth6, i64 0, i64 %33
  %35 = load i64, ptr %34, align 8, !tbaa !79
  %36 = xor i64 %35, -1
  %37 = and i64 %31, %36
  %38 = load ptr, ptr %5, align 8, !tbaa !51
  %39 = load i32, ptr %9, align 4, !tbaa !3
  %40 = sext i32 %39 to i64
  %41 = getelementptr inbounds i64, ptr %38, i64 %40
  %42 = load i64, ptr %41, align 8, !tbaa !79
  %43 = load i32, ptr %7, align 4, !tbaa !3
  %44 = sext i32 %43 to i64
  %45 = getelementptr inbounds [6 x i64], ptr @Truth6, i64 0, i64 %44
  %46 = load i64, ptr %45, align 8, !tbaa !79
  %47 = and i64 %42, %46
  %48 = load i32, ptr %10, align 4, !tbaa !3
  %49 = zext i32 %48 to i64
  %50 = lshr i64 %47, %49
  %51 = icmp ne i64 %37, %50
  br i1 %51, label %52, label %53

52:                                               ; preds = %26
  store i32 1, ptr %4, align 4
  store i32 1, ptr %11, align 4
  br label %58

53:                                               ; preds = %26
  br label %54

54:                                               ; preds = %53
  %55 = load i32, ptr %9, align 4, !tbaa !3
  %56 = add nsw i32 %55, 1
  store i32 %56, ptr %9, align 4, !tbaa !3
  br label %22, !llvm.loop !165

57:                                               ; preds = %22
  store i32 0, ptr %4, align 4
  store i32 1, ptr %11, align 4
  br label %58

58:                                               ; preds = %57, %52
  call void @llvm.lifetime.end.p0(i64 4, ptr %10) #11
  call void @llvm.lifetime.end.p0(i64 4, ptr %9) #11
  br label %104

59:                                               ; preds = %3
  call void @llvm.lifetime.start.p0(i64 4, ptr %12) #11
  call void @llvm.lifetime.start.p0(i64 4, ptr %13) #11
  call void @llvm.lifetime.start.p0(i64 4, ptr %14) #11
  %60 = load i32, ptr %7, align 4, !tbaa !3
  %61 = sub nsw i32 %60, 6
  %62 = shl i32 1, %61
  store i32 %62, ptr %14, align 4, !tbaa !3
  store i32 0, ptr %13, align 4, !tbaa !3
  br label %63

63:                                               ; preds = %97, %59
  %64 = load i32, ptr %13, align 4, !tbaa !3
  %65 = load i32, ptr %8, align 4, !tbaa !3
  %66 = icmp slt i32 %64, %65
  br i1 %66, label %67, label %102

67:                                               ; preds = %63
  store i32 0, ptr %12, align 4, !tbaa !3
  br label %68

68:                                               ; preds = %88, %67
  %69 = load i32, ptr %12, align 4, !tbaa !3
  %70 = load i32, ptr %14, align 4, !tbaa !3
  %71 = icmp slt i32 %69, %70
  br i1 %71, label %72, label %91

72:                                               ; preds = %68
  %73 = load ptr, ptr %5, align 8, !tbaa !51
  %74 = load i32, ptr %12, align 4, !tbaa !3
  %75 = sext i32 %74 to i64
  %76 = getelementptr inbounds i64, ptr %73, i64 %75
  %77 = load i64, ptr %76, align 8, !tbaa !79
  %78 = load ptr, ptr %5, align 8, !tbaa !51
  %79 = load i32, ptr %14, align 4, !tbaa !3
  %80 = load i32, ptr %12, align 4, !tbaa !3
  %81 = add nsw i32 %79, %80
  %82 = sext i32 %81 to i64
  %83 = getelementptr inbounds i64, ptr %78, i64 %82
  %84 = load i64, ptr %83, align 8, !tbaa !79
  %85 = icmp ne i64 %77, %84
  br i1 %85, label %86, label %87

86:                                               ; preds = %72
  store i32 1, ptr %4, align 4
  store i32 1, ptr %11, align 4
  br label %103

87:                                               ; preds = %72
  br label %88

88:                                               ; preds = %87
  %89 = load i32, ptr %12, align 4, !tbaa !3
  %90 = add nsw i32 %89, 1
  store i32 %90, ptr %12, align 4, !tbaa !3
  br label %68, !llvm.loop !166

91:                                               ; preds = %68
  %92 = load i32, ptr %14, align 4, !tbaa !3
  %93 = mul nsw i32 2, %92
  %94 = load ptr, ptr %5, align 8, !tbaa !51
  %95 = sext i32 %93 to i64
  %96 = getelementptr inbounds i64, ptr %94, i64 %95
  store ptr %96, ptr %5, align 8, !tbaa !51
  br label %97

97:                                               ; preds = %91
  %98 = load i32, ptr %14, align 4, !tbaa !3
  %99 = mul nsw i32 2, %98
  %100 = load i32, ptr %13, align 4, !tbaa !3
  %101 = add nsw i32 %100, %99
  store i32 %101, ptr %13, align 4, !tbaa !3
  br label %63, !llvm.loop !167

102:                                              ; preds = %63
  store i32 0, ptr %4, align 4
  store i32 1, ptr %11, align 4
  br label %103

103:                                              ; preds = %102, %86
  call void @llvm.lifetime.end.p0(i64 4, ptr %14) #11
  call void @llvm.lifetime.end.p0(i64 4, ptr %13) #11
  call void @llvm.lifetime.end.p0(i64 4, ptr %12) #11
  br label %104

104:                                              ; preds = %103, %58
  call void @llvm.lifetime.end.p0(i64 4, ptr %8) #11
  %105 = load i32, ptr %4, align 4
  ret i32 %105
}

; Function Attrs: nounwind uwtable
define i32 @If_CluSupportSize(ptr noundef %0, i32 noundef %1) #0 {
  %3 = alloca ptr, align 8
  %4 = alloca i32, align 4
  %5 = alloca i32, align 4
  %6 = alloca i32, align 4
  store ptr %0, ptr %3, align 8, !tbaa !51
  store i32 %1, ptr %4, align 4, !tbaa !3
  call void @llvm.lifetime.start.p0(i64 4, ptr %5) #11
  call void @llvm.lifetime.start.p0(i64 4, ptr %6) #11
  store i32 0, ptr %6, align 4, !tbaa !3
  store i32 0, ptr %5, align 4, !tbaa !3
  br label %7

7:                                                ; preds = %21, %2
  %8 = load i32, ptr %5, align 4, !tbaa !3
  %9 = load i32, ptr %4, align 4, !tbaa !3
  %10 = icmp slt i32 %8, %9
  br i1 %10, label %11, label %24

11:                                               ; preds = %7
  %12 = load ptr, ptr %3, align 8, !tbaa !51
  %13 = load i32, ptr %4, align 4, !tbaa !3
  %14 = load i32, ptr %5, align 4, !tbaa !3
  %15 = call i32 @If_CluHasVar(ptr noundef %12, i32 noundef %13, i32 noundef %14)
  %16 = icmp ne i32 %15, 0
  br i1 %16, label %17, label %20

17:                                               ; preds = %11
  %18 = load i32, ptr %6, align 4, !tbaa !3
  %19 = add nsw i32 %18, 1
  store i32 %19, ptr %6, align 4, !tbaa !3
  br label %20

20:                                               ; preds = %17, %11
  br label %21

21:                                               ; preds = %20
  %22 = load i32, ptr %5, align 4, !tbaa !3
  %23 = add nsw i32 %22, 1
  store i32 %23, ptr %5, align 4, !tbaa !3
  br label %7, !llvm.loop !52

24:                                               ; preds = %7
  %25 = load i32, ptr %6, align 4, !tbaa !3
  call void @llvm.lifetime.end.p0(i64 4, ptr %6) #11
  call void @llvm.lifetime.end.p0(i64 4, ptr %5) #11
  ret i32 %25
}