; Function Attrs: nofree norecurse nosync nounwind memory(argmem: read) uwtable
define i32 @If_CluSupportSize(ptr noundef readonly captures(none) %0, i32 noundef %1) local_unnamed_addr #3 {
  %3 = icmp sgt i32 %1, 0
  br i1 %3, label %.lr.ph, label %._crit_edge

.lr.ph:                                           ; preds = %2
  %4 = icmp samesign ult i32 %1, 7
  %5 = add nsw i32 %1, -6
  %6 = shl nuw i32 1, %5
  %.fr = freeze i32 %6
  %7 = select i1 %4, i32 1, i32 %.fr
  %8 = icmp sgt i32 %7, 0
  %wide.trip.count52.i = zext nneg i32 %7 to i64
  br i1 %8, label %.lr.ph.split.us.split.us.preheader, label %._crit_edge

.lr.ph.split.us.split.us.preheader:               ; preds = %.lr.ph
  %wide.trip.count50 = zext nneg i32 %1 to i64
  br label %.lr.ph.split.us.split.us

.lr.ph.split.us.split.us:                         ; preds = %.lr.ph.split.us.split.us.preheader, %If_CluHasVar.exit.thread.us.us
  %indvars.iv47 = phi i64 [ 0, %.lr.ph.split.us.split.us.preheader ], [ %indvars.iv.next48, %If_CluHasVar.exit.thread.us.us ]
  %.021.us.us = phi i32 [ 0, %.lr.ph.split.us.split.us.preheader ], [ %40, %If_CluHasVar.exit.thread.us.us ]
  %9 = icmp samesign ult i64 %indvars.iv47, 6
  br i1 %9, label %.lr.ph.i.us.us, label %.preheader.lr.ph.i.us.us

.preheader.lr.ph.i.us.us:                         ; preds = %.lr.ph.split.us.split.us
  %10 = add nsw i64 %indvars.iv47, -6
  %11 = icmp eq i64 %10, 31
  %12 = trunc nsw i64 %10 to i32
  %13 = shl i32 2, %12
  %14 = sext i32 %13 to i64
  br i1 %11, label %If_CluHasVar.exit.us.us, label %.preheader.us.preheader.i.us.us

.preheader.us.preheader.i.us.us:                  ; preds = %.preheader.lr.ph.i.us.us
  %15 = shl nuw i32 1, %12
  %16 = sext i32 %15 to i64
  %smax.i.us.us = tail call i32 @llvm.smax.i32(i32 %15, i32 1)
  %wide.trip.count.i.us.us = zext nneg i32 %smax.i.us.us to i64
  br label %.preheader.us.i.us.us

.preheader.us.i.us.us:                            ; preds = %._crit_edge.us.i.us.us, %.preheader.us.preheader.i.us.us
  %.02841.us.i.us.us = phi i32 [ %23, %._crit_edge.us.i.us.us ], [ 0, %.preheader.us.preheader.i.us.us ]
  %.03040.us.i.us.us = phi ptr [ %22, %._crit_edge.us.i.us.us ], [ %0, %.preheader.us.preheader.i.us.us ]
  %invariant.gep.i.us.us = getelementptr i64, ptr %.03040.us.i.us.us, i64 %16
  br label %17

17:                                               ; preds = %21, %.preheader.us.i.us.us
  %indvars.iv.i.us.us = phi i64 [ 0, %.preheader.us.i.us.us ], [ %indvars.iv.next.i.us.us, %21 ]
  %18 = getelementptr inbounds nuw i64, ptr %.03040.us.i.us.us, i64 %indvars.iv.i.us.us
  %19 = load i64, ptr %18, align 8, !tbaa !16
  %gep.i.us.us = getelementptr i64, ptr %invariant.gep.i.us.us, i64 %indvars.iv.i.us.us
  %20 = load i64, ptr %gep.i.us.us, align 8, !tbaa !16
  %.not.us.i.us.us = icmp eq i64 %19, %20
  br i1 %.not.us.i.us.us, label %21, label %If_CluHasVar.exit.thread13.us.us

21:                                               ; preds = %17
  %indvars.iv.next.i.us.us = add nuw nsw i64 %indvars.iv.i.us.us, 1
  %exitcond.not.i.us.us = icmp eq i64 %indvars.iv.next.i.us.us, %wide.trip.count.i.us.us
  br i1 %exitcond.not.i.us.us, label %._crit_edge.us.i.us.us, label %17, !llvm.loop !18

._crit_edge.us.i.us.us:                           ; preds = %21
  %22 = getelementptr inbounds i64, ptr %.03040.us.i.us.us, i64 %14
  %23 = add nsw i32 %.02841.us.i.us.us, %13
  %24 = icmp slt i32 %23, %7
  br i1 %24, label %.preheader.us.i.us.us, label %If_CluHasVar.exit.thread.us.us, !llvm.loop !19

If_CluHasVar.exit.us.us:                          ; preds = %.preheader.lr.ph.i.us.us
  %25 = add nsw i32 %.021.us.us, 1
  br label %If_CluHasVar.exit.thread.us.us

.lr.ph.i.us.us:                                   ; preds = %.lr.ph.split.us.split.us
  %26 = trunc nuw nsw i64 %indvars.iv47 to i32
  %27 = shl nuw nsw i32 1, %26
  %28 = getelementptr inbounds nuw [6 x i64], ptr @s_Truths6, i64 0, i64 %indvars.iv47
  %29 = load i64, ptr %28, align 8, !tbaa !16
  %30 = xor i64 %29, -1
  %31 = zext nneg i32 %27 to i64
  br label %32

32:                                               ; preds = %39, %.lr.ph.i.us.us
  %indvars.iv49.i.us.us = phi i64 [ 0, %.lr.ph.i.us.us ], [ %indvars.iv.next50.i.us.us, %39 ]
  %33 = getelementptr inbounds nuw i64, ptr %0, i64 %indvars.iv49.i.us.us
  %34 = load i64, ptr %33, align 8, !tbaa !16
  %35 = and i64 %34, %30
  %36 = and i64 %34, %29
  %37 = lshr i64 %36, %31
  %.not36.i.us.us = icmp eq i64 %35, %37
  br i1 %.not36.i.us.us, label %39, label %If_CluHasVar.exit.thread13.us.us

If_CluHasVar.exit.thread13.us.us:                 ; preds = %32, %17
  %38 = add nsw i32 %.021.us.us, 1
  br label %If_CluHasVar.exit.thread.us.us

39:                                               ; preds = %32
  %indvars.iv.next50.i.us.us = add nuw nsw i64 %indvars.iv49.i.us.us, 1
  %exitcond53.not.i.us.us = icmp eq i64 %indvars.iv.next50.i.us.us, %wide.trip.count52.i
  br i1 %exitcond53.not.i.us.us, label %If_CluHasVar.exit.thread.us.us, label %32, !llvm.loop !20

If_CluHasVar.exit.thread.us.us:                   ; preds = %._crit_edge.us.i.us.us, %39, %If_CluHasVar.exit.thread13.us.us, %If_CluHasVar.exit.us.us
  %40 = phi i32 [ %25, %If_CluHasVar.exit.us.us ], [ %38, %If_CluHasVar.exit.thread13.us.us ], [ %.021.us.us, %39 ], [ %.021.us.us, %._crit_edge.us.i.us.us ]
  %indvars.iv.next48 = add nuw nsw i64 %indvars.iv47, 1
  %exitcond51.not = icmp eq i64 %indvars.iv.next48, %wide.trip.count50
  br i1 %exitcond51.not, label %._crit_edge, label %.lr.ph.split.us.split.us, !llvm.loop !21

._crit_edge:                                      ; preds = %If_CluHasVar.exit.thread.us.us, %.lr.ph, %2
  %.0.lcssa = phi i32 [ 0, %2 ], [ 0, %.lr.ph ], [ %40, %If_CluHasVar.exit.thread.us.us ]
  ret i32 %.0.lcssa
}